target datalayout = "e-m:e-p270:32:32-p271:32:32-p272:64:64-i64:64-i128:128-f80:128-n8:16:32:64-S128"
target triple = "x86_64-pc-linux-gnu"

%struct.FFTextReader = type { i32, ptr, [8 x i8], i32, i32, %struct.FFIOContext }
%struct.FFIOContext = type { %struct.AVIOContext, ptr, i32, i32, i64, i64, i64, i64, i32, i32, i32, i64 }
%struct.AVIOContext = type { ptr, ptr, i32, ptr, ptr, ptr, ptr, ptr, ptr, i64, i32, i32, i32, i32, i32, i64, ptr, ptr, ptr, ptr, i32, i32, ptr, ptr, ptr, i32, ptr, i64, i64 }

; Function Attrs: nounwind uwtable
define i32 @ff_text_peek_r8(ptr noundef %0) #0 {
  %2 = alloca i32, align 4
  %3 = alloca ptr, align 8
  %4 = alloca i32, align 4
  %5 = alloca i32, align 4
  store ptr %0, ptr %3, align 8, !tbaa !4
  call void @llvm.lifetime.start.p0(i64 4, ptr %4) #9
  %6 = load ptr, ptr %3, align 8, !tbaa !4
  %7 = getelementptr inbounds nuw %struct.FFTextReader, ptr %6, i32 0, i32 3
  %8 = load i32, ptr %7, align 8, !tbaa !19
  %9 = load ptr, ptr %3, align 8, !tbaa !4
  %10 = getelementptr inbounds nuw %struct.FFTextReader, ptr %9, i32 0, i32 4
  %11 = load i32, ptr %10, align 4, !tbaa !18
  %12 = icmp slt i32 %8, %11
  br i1 %12, label %13, label %23

13:                                               ; preds = %1
  %14 = load ptr, ptr %3, align 8, !tbaa !4
  %15 = getelementptr inbounds nuw %struct.FFTextReader, ptr %14, i32 0, i32 2
  %16 = load ptr, ptr %3, align 8, !tbaa !4
  %17 = getelementptr inbounds nuw %struct.FFTextReader, ptr %16, i32 0, i32 3
  %18 = load i32, ptr %17, align 8, !tbaa !19
  %19 = sext i32 %18 to i64
  %20 = getelementptr inbounds [8 x i8], ptr %15, i64 0, i64 %19
  %21 = load i8, ptr %20, align 1, !tbaa !22
  %22 = zext i8 %21 to i32
  store i32 %22, ptr %2, align 4
  store i32 1, ptr %5, align 4
  br label %43

23:                                               ; preds = %1
  %24 = load ptr, ptr %3, align 8, !tbaa !4
  %25 = call i32 @ff_text_r8(ptr noundef %24)
  store i32 %25, ptr %4, align 4, !tbaa !21
  %26 = load ptr, ptr %3, align 8, !tbaa !4
  %27 = getelementptr inbounds nuw %struct.FFTextReader, ptr %26, i32 0, i32 1
  %28 = load ptr, ptr %27, align 8, !tbaa !10
  %29 = call i32 @avio_feof(ptr noundef %28)
  %30 = icmp ne i32 %29, 0
  br i1 %30, label %41, label %31

31:                                               ; preds = %23
  %32 = load ptr, ptr %3, align 8, !tbaa !4
  %33 = getelementptr inbounds nuw %struct.FFTextReader, ptr %32, i32 0, i32 3
  store i32 0, ptr %33, align 8, !tbaa !19
  %34 = load ptr, ptr %3, align 8, !tbaa !4
  %35 = getelementptr inbounds nuw %struct.FFTextReader, ptr %34, i32 0, i32 4
  store i32 1, ptr %35, align 4, !tbaa !18
  %36 = load i32, ptr %4, align 4, !tbaa !21
  %37 = trunc i32 %36 to i8
  %38 = load ptr, ptr %3, align 8, !tbaa !4
  %39 = getelementptr inbounds nuw %struct.FFTextReader, ptr %38, i32 0, i32 2
  %40 = getelementptr inbounds [8 x i8], ptr %39, i64 0, i64 0
  store i8 %37, ptr %40, align 8, !tbaa !22
  br label %41

41:                                               ; preds = %31, %23
  %42 = load i32, ptr %4, align 4, !tbaa !21
  store i32 %42, ptr %2, align 4
  store i32 1, ptr %5, align 4
  br label %43

43:                                               ; preds = %41, %13
  call void @llvm.lifetime.end.p0(i64 4, ptr %4) #9
  %44 = load i32, ptr %2, align 4
  ret i32 %44
}