; Function Attrs: nounwind uwtable
define i32 @ff_text_peek_r8(ptr noundef captures(none) %0) local_unnamed_addr #0 {
  %2 = getelementptr inbounds nuw i8, ptr %0, i64 24
  %3 = load i32, ptr %2, align 8, !tbaa !17
  %4 = getelementptr inbounds nuw i8, ptr %0, i64 28
  %5 = load i32, ptr %4, align 4, !tbaa !16
  %6 = icmp slt i32 %3, %5
  br i1 %6, label %7, label %13

7:                                                ; preds = %1
  %8 = getelementptr inbounds nuw i8, ptr %0, i64 16
  %9 = sext i32 %3 to i64
  %10 = getelementptr inbounds [8 x i8], ptr %8, i64 0, i64 %9
  %11 = load i8, ptr %10, align 1, !tbaa !19
  %12 = zext i8 %11 to i32
  br label %21

13:                                               ; preds = %1
  %14 = tail call i32 @ff_text_r8(ptr noundef nonnull %0)
  %15 = getelementptr inbounds nuw i8, ptr %0, i64 8
  %16 = load ptr, ptr %15, align 8, !tbaa !4
  %17 = tail call i32 @avio_feof(ptr noundef %16) #11
  %.not = icmp eq i32 %17, 0
  br i1 %.not, label %18, label %21

18:                                               ; preds = %13
  store i32 0, ptr %2, align 8, !tbaa !17
  store i32 1, ptr %4, align 4, !tbaa !16
  %19 = trunc i32 %14 to i8
  %20 = getelementptr inbounds nuw i8, ptr %0, i64 16
  store i8 %19, ptr %20, align 8, !tbaa !19
  br label %21

21:                                               ; preds = %13, %18, %7
  %.0 = phi i32 [ %12, %7 ], [ %14, %18 ], [ %14, %13 ]
  ret i32 %.0
}